; Function Attrs: nounwind uwtable
define internal ptr @cff_sid_to_glyph_name(ptr nocapture noundef readonly %0, i32 noundef %1) #4 {
  %3 = getelementptr inbounds i8, ptr %0, i64 1168
  %4 = load ptr, ptr %3, align 8
  %5 = getelementptr inbounds i8, ptr %4, i64 1312
  %6 = load ptr, ptr %5, align 8
  %7 = zext i32 %1 to i64
  %8 = getelementptr inbounds i16, ptr %6, i64 %7
  %9 = load i16, ptr %8, align 2
  %10 = zext i16 %9 to i32
  %11 = icmp eq i16 %9, -1
  br i1 %11, label %cff_index_get_sid_string.exit, label %12

12:                                               ; preds = %2
  %13 = icmp ugt i16 %9, 390
  br i1 %13, label %14, label %25

14:                                               ; preds = %12
  %15 = add nsw i32 %10, -391
  %16 = getelementptr inbounds i8, ptr %4, i64 1608
  %17 = load i32, ptr %16, align 8
  %18 = icmp ugt i32 %17, %15
  br i1 %18, label %19, label %cff_index_get_sid_string.exit

19:                                               ; preds = %14
  %20 = getelementptr inbounds i8, ptr %4, i64 1616
  %21 = load ptr, ptr %20, align 8
  %22 = zext nneg i32 %15 to i64
  %23 = getelementptr inbounds ptr, ptr %21, i64 %22
  %24 = load ptr, ptr %23, align 8
  br label %cff_index_get_sid_string.exit

25:                                               ; preds = %12
  %26 = getelementptr inbounds i8, ptr %4, i64 4960
  %27 = load ptr, ptr %26, align 8
  %.not.i = icmp eq ptr %27, null
  br i1 %.not.i, label %cff_index_get_sid_string.exit, label %28

28:                                               ; preds = %25
  %29 = getelementptr inbounds i8, ptr %27, i64 40
  %30 = load ptr, ptr %29, align 8
  %31 = tail call ptr %30(i32 noundef %10) #20
  br label %cff_index_get_sid_string.exit

cff_index_get_sid_string.exit:                    ; preds = %2, %14, %19, %25, %28
  %.0.i = phi ptr [ %31, %28 ], [ null, %2 ], [ null, %25 ], [ %24, %19 ], [ null, %14 ]
  ret ptr %.0.i
}